target datalayout = "e-m:e-p270:32:32-p271:32:32-p272:64:64-i64:64-i128:128-f80:128-n8:16:32:64-S128"
target triple = "x86_64-pc-linux-gnu"

@hf_wai_key_data = internal global i32 0, align 4
@hf_wai_key_data_len = internal global i32 0, align 4
@hf_wai_key_data_content = internal global i32 0, align 4
@ett_wai_key_data = internal global i32 0, align 4
@.str.228 = private unnamed_addr constant [1 x i8] zeroinitializer, align 1
@.str.238 = private unnamed_addr constant [11 x i8] c"%sKey Data\00", align 1

; Function Attrs: nounwind uwtable
define internal zeroext i16 @dissect_key_data(ptr noundef %0, i32 noundef %1, ptr noundef %2, ptr noundef %3) #0 {
  %5 = alloca ptr, align 8
  %6 = alloca i32, align 4
  %7 = alloca ptr, align 8
  %8 = alloca ptr, align 8
  %9 = alloca ptr, align 8
  %10 = alloca ptr, align 8
  %11 = alloca i8, align 1
  store ptr %0, ptr %5, align 8
  store i32 %1, ptr %6, align 4
  store ptr %2, ptr %7, align 8
  store ptr %3, ptr %8, align 8
  %12 = load ptr, ptr %5, align 8
  %13 = load i32, ptr %6, align 4
  %14 = call zeroext i8 @tvb_get_guint8(ptr noundef %12, i32 noundef %13)
  store i8 %14, ptr %11, align 1
  %15 = load ptr, ptr %7, align 8
  %16 = load i32, ptr @hf_wai_key_data, align 4
  %17 = load ptr, ptr %5, align 8
  %18 = load i32, ptr %6, align 4
  %19 = load i8, ptr %11, align 1
  %20 = zext i8 %19 to i32
  %21 = add i32 %20, 1
  %22 = call ptr @proto_tree_add_item(ptr noundef %15, i32 noundef %16, ptr noundef %17, i32 noundef %18, i32 noundef %21, i32 noundef 0)
  store ptr %22, ptr %9, align 8
  %23 = load ptr, ptr %9, align 8
  %24 = load ptr, ptr %8, align 8
  %25 = icmp eq ptr %24, null
  br i1 %25, label %26, label %27

26:                                               ; preds = %4
  br label %29

27:                                               ; preds = %4
  %28 = load ptr, ptr %8, align 8
  br label %29

29:                                               ; preds = %27, %26
  %30 = phi ptr [ @.str.228, %26 ], [ %28, %27 ]
  call void (ptr, ptr, ...) @proto_item_set_text(ptr noundef %23, ptr noundef @.str.238, ptr noundef %30)
  %31 = load ptr, ptr %9, align 8
  %32 = load i32, ptr @ett_wai_key_data, align 4
  %33 = call ptr @proto_item_add_subtree(ptr noundef %31, i32 noundef %32)
  store ptr %33, ptr %10, align 8
  %34 = load ptr, ptr %10, align 8
  %35 = load i32, ptr @hf_wai_key_data_len, align 4
  %36 = load ptr, ptr %5, align 8
  %37 = load i32, ptr %6, align 4
  %38 = call ptr @proto_tree_add_item(ptr noundef %34, i32 noundef %35, ptr noundef %36, i32 noundef %37, i32 noundef 1, i32 noundef 0)
  %39 = load i8, ptr %11, align 1
  %40 = zext i8 %39 to i32
  %41 = icmp sgt i32 %40, 0
  br i1 %41, label %42, label %51

42:                                               ; preds = %29
  %43 = load ptr, ptr %10, align 8
  %44 = load i32, ptr @hf_wai_key_data_content, align 4
  %45 = load ptr, ptr %5, align 8
  %46 = load i32, ptr %6, align 4
  %47 = add i32 %46, 1
  %48 = load i8, ptr %11, align 1
  %49 = zext i8 %48 to i32
  %50 = call ptr @proto_tree_add_item(ptr noundef %43, i32 noundef %44, ptr noundef %45, i32 noundef %47, i32 noundef %49, i32 noundef 0)
  br label %51

51:                                               ; preds = %42, %29
  %52 = load i8, ptr %11, align 1
  %53 = zext i8 %52 to i32
  %54 = add i32 %53, 1
  %55 = trunc i32 %54 to i16
  ret i16 %55
}