; Function Attrs: nounwind uwtable
define internal fastcc zeroext range(i16 1, 257) i16 @dissect_key_data(ptr noundef %0, i32 noundef range(i32 47, 323) %1, ptr noundef %2, ptr noundef %3) unnamed_addr #0 {
  %5 = tail call zeroext i8 @tvb_get_guint8(ptr noundef %0, i32 noundef %1) #3
  %6 = load i32, ptr @hf_wai_key_data, align 4
  %7 = zext i8 %5 to i32
  %8 = add nuw nsw i32 %7, 1
  %9 = tail call ptr @proto_tree_add_item(ptr noundef %2, i32 noundef %6, ptr noundef %0, i32 noundef %1, i32 noundef %8, i32 noundef 0) #3
  %10 = icmp eq ptr %3, null
  %11 = select i1 %10, ptr @.str.228, ptr %3
  tail call void (ptr, ptr, ...) @proto_item_set_text(ptr noundef %9, ptr noundef nonnull @.str.238, ptr noundef nonnull %11) #3
  %12 = load i32, ptr @ett_wai_key_data, align 4
  %13 = tail call ptr @proto_item_add_subtree(ptr noundef %9, i32 noundef %12) #3
  %14 = load i32, ptr @hf_wai_key_data_len, align 4
  %15 = tail call ptr @proto_tree_add_item(ptr noundef %13, i32 noundef %14, ptr noundef %0, i32 noundef %1, i32 noundef 1, i32 noundef 0) #3
  %.not = icmp eq i8 %5, 0
  br i1 %.not, label %20, label %16

16:                                               ; preds = %4
  %17 = load i32, ptr @hf_wai_key_data_content, align 4
  %18 = add nuw nsw i32 %1, 1
  %19 = tail call ptr @proto_tree_add_item(ptr noundef %13, i32 noundef %17, ptr noundef %0, i32 noundef %18, i32 noundef %7, i32 noundef 0) #3
  br label %20

20:                                               ; preds = %16, %4
  %21 = trunc nuw nsw i32 %8 to i16
  ret i16 %21
}